; Function Attrs: nounwind uwtable
define hidden i32 @mbedtls_gcm_auth_decrypt(ptr noundef %0, i64 noundef %1, ptr noundef readonly captures(none) %2, i64 noundef %3, ptr noundef readonly captures(none) %4, i64 noundef %5, ptr noundef %6, i64 noundef %7, ptr noundef %8, ptr noundef %9) local_unnamed_addr #2 {
  %11 = alloca i64, align 8
  %12 = alloca [16 x i8], align 16
  call void @llvm.lifetime.start.p0(i64 16, ptr nonnull %12) #11
  call void @llvm.lifetime.start.p0(i64 8, ptr nonnull %11) #11
  %13 = tail call i32 @mbedtls_gcm_starts(ptr noundef %0, i32 noundef 0, ptr noundef readonly %2, i64 noundef %3)
  %.not.i = icmp eq i32 %13, 0
  br i1 %.not.i, label %14, label %mbedtls_gcm_crypt_and_tag.exit.thread

14:                                               ; preds = %10
  %15 = tail call i32 @mbedtls_gcm_update_ad(ptr noundef %0, ptr noundef readonly %4, i64 noundef %5)
  %.not23.i = icmp eq i32 %15, 0
  br i1 %.not23.i, label %16, label %mbedtls_gcm_crypt_and_tag.exit.thread

16:                                               ; preds = %14
  %17 = call i32 @mbedtls_gcm_update(ptr noundef %0, ptr noundef %8, i64 noundef %1, ptr noundef %9, i64 noundef %1, ptr noundef nonnull %11)
  %.not24.i = icmp eq i32 %17, 0
  br i1 %.not24.i, label %mbedtls_gcm_crypt_and_tag.exit, label %mbedtls_gcm_crypt_and_tag.exit.thread

mbedtls_gcm_crypt_and_tag.exit.thread:            ; preds = %10, %14, %16
  %.0.i.ph = phi i32 [ %17, %16 ], [ %15, %14 ], [ %13, %10 ]
  call void @llvm.lifetime.end.p0(i64 8, ptr nonnull %11) #11
  br label %22

mbedtls_gcm_crypt_and_tag.exit:                   ; preds = %16
  %18 = call i32 @mbedtls_gcm_finish(ptr noundef %0, ptr poison, i64 poison, ptr noundef nonnull %11, ptr noundef nonnull %12, i64 noundef %7)
  call void @llvm.lifetime.end.p0(i64 8, ptr nonnull %11) #11
  %.not = icmp eq i32 %18, 0
  br i1 %.not, label %19, label %22

19:                                               ; preds = %mbedtls_gcm_crypt_and_tag.exit
  %20 = call i32 @mbedtls_ct_memcmp(ptr noundef %6, ptr noundef nonnull %12, i64 noundef %7) #11
  %.not16 = icmp eq i32 %20, 0
  br i1 %.not16, label %22, label %21

21:                                               ; preds = %19
  call void @mbedtls_platform_zeroize(ptr noundef %9, i64 noundef %1) #11
  br label %22

22:                                               ; preds = %mbedtls_gcm_crypt_and_tag.exit.thread, %19, %mbedtls_gcm_crypt_and_tag.exit, %21
  %.0 = phi i32 [ -18, %21 ], [ %18, %mbedtls_gcm_crypt_and_tag.exit ], [ 0, %19 ], [ %.0.i.ph, %mbedtls_gcm_crypt_and_tag.exit.thread ]
  call void @llvm.lifetime.end.p0(i64 16, ptr nonnull %12) #11
  ret i32 %.0
}